target datalayout = "e-m:e-p270:32:32-p271:32:32-p272:64:64-i64:64-i128:128-f80:128-n8:16:32:64-S128"
target triple = "x86_64-pc-linux-gnu"

%struct._generic_N_Vector = type { ptr, ptr, ptr }
%struct._N_VectorContent_Serial = type { i64, i32, ptr }

; Function Attrs: nounwind uwtable
define internal i32 @rhsQBS2(double noundef %0, ptr noundef %1, ptr noundef %2, ptr noundef %3, ptr noundef %4, ptr noundef %5, ptr noundef %6, ptr noundef %7, ptr noundef %8) #0 {
  %10 = alloca double, align 8
  %11 = alloca ptr, align 8
  %12 = alloca ptr, align 8
  %13 = alloca ptr, align 8
  %14 = alloca ptr, align 8
  %15 = alloca ptr, align 8
  %16 = alloca ptr, align 8
  %17 = alloca ptr, align 8
  %18 = alloca ptr, align 8
  %19 = alloca double, align 8
  %20 = alloca double, align 8
  %21 = alloca double, align 8
  %22 = alloca double, align 8
  %23 = alloca double, align 8
  %24 = alloca double, align 8
  %25 = alloca double, align 8
  %26 = alloca double, align 8
  %27 = alloca double, align 8
  %28 = alloca double, align 8
  %29 = alloca double, align 8
  store double %0, ptr %10, align 8, !tbaa !14
  store ptr %1, ptr %11, align 8, !tbaa !16
  store ptr %2, ptr %12, align 8, !tbaa !16
  store ptr %3, ptr %13, align 8, !tbaa !25
  store ptr %4, ptr %14, align 8, !tbaa !25
  store ptr %5, ptr %15, align 8, !tbaa !16
  store ptr %6, ptr %16, align 8, !tbaa !16
  store ptr %7, ptr %17, align 8, !tbaa !16
  store ptr %8, ptr %18, align 8, !tbaa !13
  call void @llvm.lifetime.start.p0(i64 8, ptr %19) #6
  call void @llvm.lifetime.start.p0(i64 8, ptr %20) #6
  call void @llvm.lifetime.start.p0(i64 8, ptr %21) #6
  call void @llvm.lifetime.start.p0(i64 8, ptr %22) #6
  call void @llvm.lifetime.start.p0(i64 8, ptr %23) #6
  call void @llvm.lifetime.start.p0(i64 8, ptr %24) #6
  call void @llvm.lifetime.start.p0(i64 8, ptr %25) #6
  call void @llvm.lifetime.start.p0(i64 8, ptr %26) #6
  call void @llvm.lifetime.start.p0(i64 8, ptr %27) #6
  call void @llvm.lifetime.start.p0(i64 8, ptr %28) #6
  call void @llvm.lifetime.start.p0(i64 8, ptr %29) #6
  %30 = load ptr, ptr %11, align 8, !tbaa !16
  %31 = getelementptr inbounds nuw %struct._generic_N_Vector, ptr %30, i32 0, i32 0
  %32 = load ptr, ptr %31, align 8, !tbaa !18
  %33 = getelementptr inbounds nuw %struct._N_VectorContent_Serial, ptr %32, i32 0, i32 2
  %34 = load ptr, ptr %33, align 8, !tbaa !21
  %35 = getelementptr inbounds double, ptr %34, i64 0
  %36 = load double, ptr %35, align 8, !tbaa !14
  store double %36, ptr %19, align 8, !tbaa !14
  %37 = load ptr, ptr %11, align 8, !tbaa !16
  %38 = getelementptr inbounds nuw %struct._generic_N_Vector, ptr %37, i32 0, i32 0
  %39 = load ptr, ptr %38, align 8, !tbaa !18
  %40 = getelementptr inbounds nuw %struct._N_VectorContent_Serial, ptr %39, i32 0, i32 2
  %41 = load ptr, ptr %40, align 8, !tbaa !21
  %42 = getelementptr inbounds double, ptr %41, i64 1
  %43 = load double, ptr %42, align 8, !tbaa !14
  store double %43, ptr %20, align 8, !tbaa !14
  %44 = load ptr, ptr %11, align 8, !tbaa !16
  %45 = getelementptr inbounds nuw %struct._generic_N_Vector, ptr %44, i32 0, i32 0
  %46 = load ptr, ptr %45, align 8, !tbaa !18
  %47 = getelementptr inbounds nuw %struct._N_VectorContent_Serial, ptr %46, i32 0, i32 2
  %48 = load ptr, ptr %47, align 8, !tbaa !21
  %49 = getelementptr inbounds double, ptr %48, i64 2
  %50 = load double, ptr %49, align 8, !tbaa !14
  store double %50, ptr %21, align 8, !tbaa !14
  %51 = load ptr, ptr %15, align 8, !tbaa !16
  %52 = getelementptr inbounds nuw %struct._generic_N_Vector, ptr %51, i32 0, i32 0
  %53 = load ptr, ptr %52, align 8, !tbaa !18
  %54 = getelementptr inbounds nuw %struct._N_VectorContent_Serial, ptr %53, i32 0, i32 2
  %55 = load ptr, ptr %54, align 8, !tbaa !21
  %56 = getelementptr inbounds double, ptr %55, i64 0
  %57 = load double, ptr %56, align 8, !tbaa !14
  store double %57, ptr %22, align 8, !tbaa !14
  %58 = load ptr, ptr %15, align 8, !tbaa !16
  %59 = getelementptr inbounds nuw %struct._generic_N_Vector, ptr %58, i32 0, i32 0
  %60 = load ptr, ptr %59, align 8, !tbaa !18
  %61 = getelementptr inbounds nuw %struct._N_VectorContent_Serial, ptr %60, i32 0, i32 2
  %62 = load ptr, ptr %61, align 8, !tbaa !21
  %63 = getelementptr inbounds double, ptr %62, i64 1
  %64 = load double, ptr %63, align 8, !tbaa !14
  store double %64, ptr %23, align 8, !tbaa !14
  %65 = load ptr, ptr %15, align 8, !tbaa !16
  %66 = getelementptr inbounds nuw %struct._generic_N_Vector, ptr %65, i32 0, i32 0
  %67 = load ptr, ptr %66, align 8, !tbaa !18
  %68 = getelementptr inbounds nuw %struct._N_VectorContent_Serial, ptr %67, i32 0, i32 2
  %69 = load ptr, ptr %68, align 8, !tbaa !21
  %70 = getelementptr inbounds double, ptr %69, i64 3
  %71 = load double, ptr %70, align 8, !tbaa !14
  store double %71, ptr %24, align 8, !tbaa !14
  %72 = load ptr, ptr %15, align 8, !tbaa !16
  %73 = getelementptr inbounds nuw %struct._generic_N_Vector, ptr %72, i32 0, i32 0
  %74 = load ptr, ptr %73, align 8, !tbaa !18
  %75 = getelementptr inbounds nuw %struct._N_VectorContent_Serial, ptr %74, i32 0, i32 2
  %76 = load ptr, ptr %75, align 8, !tbaa !21
  %77 = getelementptr inbounds double, ptr %76, i64 4
  %78 = load double, ptr %77, align 8, !tbaa !14
  store double %78, ptr %25, align 8, !tbaa !14
  %79 = load ptr, ptr %13, align 8, !tbaa !25
  %80 = getelementptr inbounds ptr, ptr %79, i64 1
  %81 = load ptr, ptr %80, align 8, !tbaa !16
  %82 = getelementptr inbounds nuw %struct._generic_N_Vector, ptr %81, i32 0, i32 0
  %83 = load ptr, ptr %82, align 8, !tbaa !18
  %84 = getelementptr inbounds nuw %struct._N_VectorContent_Serial, ptr %83, i32 0, i32 2
  %85 = load ptr, ptr %84, align 8, !tbaa !21
  %86 = getelementptr inbounds double, ptr %85, i64 0
  %87 = load double, ptr %86, align 8, !tbaa !14
  store double %87, ptr %26, align 8, !tbaa !14
  %88 = load ptr, ptr %13, align 8, !tbaa !25
  %89 = getelementptr inbounds ptr, ptr %88, i64 1
  %90 = load ptr, ptr %89, align 8, !tbaa !16
  %91 = getelementptr inbounds nuw %struct._generic_N_Vector, ptr %90, i32 0, i32 0
  %92 = load ptr, ptr %91, align 8, !tbaa !18
  %93 = getelementptr inbounds nuw %struct._N_VectorContent_Serial, ptr %92, i32 0, i32 2
  %94 = load ptr, ptr %93, align 8, !tbaa !21
  %95 = getelementptr inbounds double, ptr %94, i64 1
  %96 = load double, ptr %95, align 8, !tbaa !14
  store double %96, ptr %27, align 8, !tbaa !14
  %97 = load ptr, ptr %13, align 8, !tbaa !25
  %98 = getelementptr inbounds ptr, ptr %97, i64 1
  %99 = load ptr, ptr %98, align 8, !tbaa !16
  %100 = getelementptr inbounds nuw %struct._generic_N_Vector, ptr %99, i32 0, i32 0
  %101 = load ptr, ptr %100, align 8, !tbaa !18
  %102 = getelementptr inbounds nuw %struct._N_VectorContent_Serial, ptr %101, i32 0, i32 2
  %103 = load ptr, ptr %102, align 8, !tbaa !21
  %104 = getelementptr inbounds double, ptr %103, i64 2
  %105 = load double, ptr %104, align 8, !tbaa !14
  store double %105, ptr %28, align 8, !tbaa !14
  %106 = load double, ptr %23, align 8, !tbaa !14
  %107 = load double, ptr %22, align 8, !tbaa !14
  %108 = fsub double %106, %107
  store double %108, ptr %29, align 8, !tbaa !14
  %109 = load double, ptr %19, align 8, !tbaa !14
  %110 = fneg double %109
  %111 = load double, ptr %29, align 8, !tbaa !14
  %112 = fmul double %110, %111
  %113 = load ptr, ptr %17, align 8, !tbaa !16
  %114 = getelementptr inbounds nuw %struct._generic_N_Vector, ptr %113, i32 0, i32 0
  %115 = load ptr, ptr %114, align 8, !tbaa !18
  %116 = getelementptr inbounds nuw %struct._N_VectorContent_Serial, ptr %115, i32 0, i32 2
  %117 = load ptr, ptr %116, align 8, !tbaa !21
  %118 = getelementptr inbounds double, ptr %117, i64 0
  store double %112, ptr %118, align 8, !tbaa !14
  %119 = load double, ptr %20, align 8, !tbaa !14
  %120 = load double, ptr %21, align 8, !tbaa !14
  %121 = fmul double %119, %120
  %122 = load double, ptr %29, align 8, !tbaa !14
  %123 = fmul double %121, %122
  %124 = load ptr, ptr %17, align 8, !tbaa !16
  %125 = getelementptr inbounds nuw %struct._generic_N_Vector, ptr %124, i32 0, i32 0
  %126 = load ptr, ptr %125, align 8, !tbaa !18
  %127 = getelementptr inbounds nuw %struct._N_VectorContent_Serial, ptr %126, i32 0, i32 2
  %128 = load ptr, ptr %127, align 8, !tbaa !21
  %129 = getelementptr inbounds double, ptr %128, i64 1
  store double %123, ptr %129, align 8, !tbaa !14
  %130 = load double, ptr %19, align 8, !tbaa !14
  %131 = load double, ptr %24, align 8, !tbaa !14
  %132 = load double, ptr %25, align 8, !tbaa !14
  %133 = fsub double %131, %132
  %134 = load double, ptr %26, align 8, !tbaa !14
  %135 = load double, ptr %29, align 8, !tbaa !14
  %136 = fmul double %134, %135
  %137 = fneg double %136
  %138 = call double @llvm.fmuladd.f64(double %130, double %133, double %137)
  %139 = load ptr, ptr %17, align 8, !tbaa !16
  %140 = getelementptr inbounds nuw %struct._generic_N_Vector, ptr %139, i32 0, i32 0
  %141 = load ptr, ptr %140, align 8, !tbaa !18
  %142 = getelementptr inbounds nuw %struct._N_VectorContent_Serial, ptr %141, i32 0, i32 2
  %143 = load ptr, ptr %142, align 8, !tbaa !21
  %144 = getelementptr inbounds double, ptr %143, i64 2
  store double %138, ptr %144, align 8, !tbaa !14
  %145 = load double, ptr %20, align 8, !tbaa !14
  %146 = load double, ptr %21, align 8, !tbaa !14
  %147 = fmul double %145, %146
  %148 = load double, ptr %25, align 8, !tbaa !14
  %149 = load double, ptr %24, align 8, !tbaa !14
  %150 = fsub double %148, %149
  %151 = load double, ptr %21, align 8, !tbaa !14
  %152 = load double, ptr %27, align 8, !tbaa !14
  %153 = load double, ptr %20, align 8, !tbaa !14
  %154 = load double, ptr %28, align 8, !tbaa !14
  %155 = fmul double %153, %154
  %156 = call double @llvm.fmuladd.f64(double %151, double %152, double %155)
  %157 = load double, ptr %29, align 8, !tbaa !14
  %158 = fmul double %156, %157
  %159 = call double @llvm.fmuladd.f64(double %147, double %150, double %158)
  %160 = load ptr, ptr %17, align 8, !tbaa !16
  %161 = getelementptr inbounds nuw %struct._generic_N_Vector, ptr %160, i32 0, i32 0
  %162 = load ptr, ptr %161, align 8, !tbaa !18
  %163 = getelementptr inbounds nuw %struct._N_VectorContent_Serial, ptr %162, i32 0, i32 2
  %164 = load ptr, ptr %163, align 8, !tbaa !21
  %165 = getelementptr inbounds double, ptr %164, i64 3
  store double %159, ptr %165, align 8, !tbaa !14
  call void @llvm.lifetime.end.p0(i64 8, ptr %29) #6
  call void @llvm.lifetime.end.p0(i64 8, ptr %28) #6
  call void @llvm.lifetime.end.p0(i64 8, ptr %27) #6
  call void @llvm.lifetime.end.p0(i64 8, ptr %26) #6
  call void @llvm.lifetime.end.p0(i64 8, ptr %25) #6
  call void @llvm.lifetime.end.p0(i64 8, ptr %24) #6
  call void @llvm.lifetime.end.p0(i64 8, ptr %23) #6
  call void @llvm.lifetime.end.p0(i64 8, ptr %22) #6
  call void @llvm.lifetime.end.p0(i64 8, ptr %21) #6
  call void @llvm.lifetime.end.p0(i64 8, ptr %20) #6
  call void @llvm.lifetime.end.p0(i64 8, ptr %19) #6
  ret i32 0
}