; Function Attrs: mustprogress nofree norecurse nosync nounwind willreturn memory(readwrite, inaccessiblemem: none) uwtable
define internal noundef i32 @rhsQBS2(double %0, ptr noundef readonly captures(none) %1, ptr readnone captures(none) %2, ptr noundef readonly captures(none) %3, ptr readnone captures(none) %4, ptr noundef readonly captures(none) %5, ptr readnone captures(none) %6, ptr noundef readonly captures(none) %7, ptr readnone captures(none) %8) #5 {
  %10 = load ptr, ptr %1, align 8, !tbaa !11
  %11 = getelementptr inbounds nuw i8, ptr %10, i64 16
  %12 = load ptr, ptr %11, align 8, !tbaa !14
  %13 = load double, ptr %12, align 8, !tbaa !9
  %14 = getelementptr inbounds nuw i8, ptr %12, i64 8
  %15 = load double, ptr %14, align 8, !tbaa !9
  %16 = getelementptr inbounds nuw i8, ptr %12, i64 16
  %17 = load double, ptr %16, align 8, !tbaa !9
  %18 = load ptr, ptr %5, align 8, !tbaa !11
  %19 = getelementptr inbounds nuw i8, ptr %18, i64 16
  %20 = load ptr, ptr %19, align 8, !tbaa !14
  %21 = load double, ptr %20, align 8, !tbaa !9
  %22 = getelementptr inbounds nuw i8, ptr %20, i64 8
  %23 = load double, ptr %22, align 8, !tbaa !9
  %24 = getelementptr inbounds nuw i8, ptr %20, i64 24
  %25 = load double, ptr %24, align 8, !tbaa !9
  %26 = getelementptr inbounds nuw i8, ptr %20, i64 32
  %27 = load double, ptr %26, align 8, !tbaa !9
  %28 = getelementptr inbounds nuw i8, ptr %3, i64 8
  %29 = load ptr, ptr %28, align 8, !tbaa !19
  %30 = load ptr, ptr %29, align 8, !tbaa !11
  %31 = getelementptr inbounds nuw i8, ptr %30, i64 16
  %32 = load ptr, ptr %31, align 8, !tbaa !14
  %33 = load double, ptr %32, align 8, !tbaa !9
  %34 = getelementptr inbounds nuw i8, ptr %32, i64 8
  %35 = load double, ptr %34, align 8, !tbaa !9
  %36 = getelementptr inbounds nuw i8, ptr %32, i64 16
  %37 = load double, ptr %36, align 8, !tbaa !9
  %38 = fsub double %23, %21
  %39 = fneg double %13
  %40 = fmul double %38, %39
  %41 = load ptr, ptr %7, align 8, !tbaa !11
  %42 = getelementptr inbounds nuw i8, ptr %41, i64 16
  %43 = load ptr, ptr %42, align 8, !tbaa !14
  store double %40, ptr %43, align 8, !tbaa !9
  %44 = fmul double %15, %17
  %45 = fmul double %44, %38
  %46 = getelementptr inbounds nuw i8, ptr %43, i64 8
  store double %45, ptr %46, align 8, !tbaa !9
  %47 = fsub double %25, %27
  %48 = fneg double %38
  %49 = fmul double %33, %48
  %50 = tail call double @llvm.fmuladd.f64(double %13, double %47, double %49)
  %51 = getelementptr inbounds nuw i8, ptr %43, i64 16
  store double %50, ptr %51, align 8, !tbaa !9
  %52 = fsub double %27, %25
  %53 = fmul double %15, %37
  %54 = tail call double @llvm.fmuladd.f64(double %17, double %35, double %53)
  %55 = fmul double %38, %54
  %56 = tail call double @llvm.fmuladd.f64(double %44, double %52, double %55)
  %57 = getelementptr inbounds nuw i8, ptr %43, i64 24
  store double %56, ptr %57, align 8, !tbaa !9
  ret i32 0
}